; Function Attrs: mustprogress uwtable
define hidden noundef zeroext i1 @_ZNK6google8protobuf8compiler3cpp22ParseFunctionGenerator23should_generate_tctableEv(ptr nocapture noundef nonnull readonly align 8 dereferenceable(116) %this) local_unnamed_addr #3 align 2 {
entry:
  %ref.tmp.i = alloca %"class.std::__cxx11::basic_string", align 8
  %0 = load ptr, ptr %this, align 8
  %options_ = getelementptr inbounds i8, ptr %this, i64 16
  %1 = load ptr, ptr %options_, align 8
  call void @llvm.lifetime.start.p0(i64 32, ptr nonnull %ref.tmp.i)
  call void @_ZN6google8protobuf8compiler3cpp15SimpleBaseClassB5cxx11EPKNS0_10DescriptorERKNS2_7OptionsE(ptr nonnull sret(%"class.std::__cxx11::basic_string") align 8 %ref.tmp.i, ptr noundef %0, ptr noundef nonnull align 8 dereferenceable(206) %1)
  %call.i = call noundef zeroext i1 @_ZNKSt7__cxx1112basic_stringIcSt11char_traitsIcESaIcEE5emptyEv(ptr noundef nonnull align 8 dereferenceable(32) %ref.tmp.i) #26
  call void @_ZNSt7__cxx1112basic_stringIcSt11char_traitsIcESaIcEED1Ev(ptr noundef nonnull align 8 dereferenceable(32) %ref.tmp.i) #26
  call void @llvm.lifetime.end.p0(i64 32, ptr nonnull %ref.tmp.i)
  br i1 %call.i, label %lor.lhs.false, label %return

lor.lhs.false:                                    ; preds = %entry
  %2 = load ptr, ptr %this, align 8
  %field_count_.i.i = getelementptr inbounds i8, ptr %2, i64 4
  %3 = load i32, ptr %field_count_.i.i, align 4
  %cmp4.i = icmp sgt i32 %3, 0
  br i1 %cmp4.i, label %for.body.lr.ph.i, label %return

for.body.lr.ph.i:                                 ; preds = %lor.lhs.false
  %fields_.i.i = getelementptr inbounds i8, ptr %2, i64 56
  %4 = load ptr, ptr %fields_.i.i, align 8
  %5 = zext nneg i32 %3 to i64
  %options_.i.i3 = getelementptr inbounds i8, ptr %4, i64 56
  %6 = load ptr, ptr %options_.i.i3, align 8
  %weak_.i.i.i4 = getelementptr inbounds i8, ptr %6, i64 132
  %7 = load i8, ptr %weak_.i.i.i4, align 4
  %8 = and i8 %7, 1
  %tobool.i.i.not.i5 = icmp eq i8 %8, 0
  br i1 %tobool.i.i.not.i5, label %for.cond.i, label %return

for.cond.i:                                       ; preds = %for.body.lr.ph.i, %for.body.i
  %indvars.iv.i6 = phi i64 [ %indvars.iv.next.i, %for.body.i ], [ 0, %for.body.lr.ph.i ]
  %indvars.iv.next.i = add nuw nsw i64 %indvars.iv.i6, 1
  %exitcond.not.i = icmp eq i64 %indvars.iv.next.i, %5
  br i1 %exitcond.not.i, label %_ZN6google8protobuf8compiler3cpp12_GLOBAL__N_113HasWeakFieldsEPKNS0_10DescriptorE.exit.loopexit, label %for.body.i, !llvm.loop !12

for.body.i:                                       ; preds = %for.cond.i
  %options_.i.i = getelementptr inbounds %"class.google::protobuf::FieldDescriptor", ptr %4, i64 %indvars.iv.next.i, i32 11
  %9 = load ptr, ptr %options_.i.i, align 8
  %weak_.i.i.i = getelementptr inbounds i8, ptr %9, i64 132
  %10 = load i8, ptr %weak_.i.i.i, align 4
  %11 = and i8 %10, 1
  %tobool.i.i.not.i = icmp eq i8 %11, 0
  br i1 %tobool.i.i.not.i, label %for.cond.i, label %_ZN6google8protobuf8compiler3cpp12_GLOBAL__N_113HasWeakFieldsEPKNS0_10DescriptorE.exit.loopexit, !llvm.loop !12

_ZN6google8protobuf8compiler3cpp12_GLOBAL__N_113HasWeakFieldsEPKNS0_10DescriptorE.exit.loopexit: ; preds = %for.cond.i, %for.body.i
  %cmp.i.le = icmp ult i64 %indvars.iv.next.i, %5
  %12 = freeze i1 %cmp.i.le
  %13 = xor i1 %12, true
  br label %return

return:                                           ; preds = %for.body.lr.ph.i, %_ZN6google8protobuf8compiler3cpp12_GLOBAL__N_113HasWeakFieldsEPKNS0_10DescriptorE.exit.loopexit, %lor.lhs.false, %entry
  %retval.0 = phi i1 [ false, %entry ], [ true, %lor.lhs.false ], [ false, %for.body.lr.ph.i ], [ %13, %_ZN6google8protobuf8compiler3cpp12_GLOBAL__N_113HasWeakFieldsEPKNS0_10DescriptorE.exit.loopexit ]
  ret i1 %retval.0
}